target datalayout = "e-m:e-p270:32:32-p271:32:32-p272:64:64-i64:64-i128:128-f80:128-n8:16:32:64-S128"
target triple = "x86_64-pc-linux-gnu"

%"class.clang::TemplateArgument" = type { %union.anon }
%union.anon = type { %"struct.clang::TemplateArgument::DA" }
%"struct.clang::TemplateArgument::DA" = type { i32, ptr, ptr }
%"struct.llvm::detail::PunnedPointer.346" = type { [8 x i8] }
%"class.clang::SourceLocation" = type { i32 }
%"class.clang::TemplateArgumentLoc" = type { %"class.clang::TemplateArgument", %"struct.clang::TemplateArgumentLocInfo" }
%"struct.clang::TemplateArgumentLocInfo" = type { %"class.llvm::PointerUnion.361" }
%"class.llvm::PointerUnion.361" = type { %"class.llvm::pointer_union_detail::PointerUnionMembers.362" }
%"class.llvm::pointer_union_detail::PointerUnionMembers.362" = type { %"class.llvm::pointer_union_detail::PointerUnionMembers.363" }
%"class.llvm::pointer_union_detail::PointerUnionMembers.363" = type { %"class.llvm::pointer_union_detail::PointerUnionMembers.364" }
%"class.llvm::pointer_union_detail::PointerUnionMembers.364" = type { %"class.llvm::pointer_union_detail::PointerUnionMembers.365" }
%"class.llvm::pointer_union_detail::PointerUnionMembers.365" = type { %"class.llvm::PointerIntPair.366" }
%"class.llvm::PointerIntPair.366" = type { %"struct.llvm::detail::PunnedPointer.346" }
%"struct.clang::ASTTemplateArgumentListInfo" = type { %"class.clang::SourceLocation", %"class.clang::SourceLocation", i32, [4 x i8] }

; Function Attrs: mustprogress nounwind uwtable
define linkonce_odr hidden noundef ptr @_ZN4llvm15TrailingObjectsIN5clang27ASTTemplateArgumentListInfoEJNS1_19TemplateArgumentLocEEE22getTrailingObjectsImplEPKS2_NS_25trailing_objects_internal19TrailingObjectsBase13OverloadTokenIS2_EE(ptr noundef %0) #0 comdat align 2 {
  %2 = alloca ptr, align 8
  store ptr %0, ptr %2, align 8
  %3 = load ptr, ptr %2, align 8
  ret ptr %3
}

; Function Attrs: mustprogress nounwind uwtable
define linkonce_odr hidden noundef ptr @_ZN4llvm25trailing_objects_internal19TrailingObjectsImplILi8EN5clang27ASTTemplateArgumentListInfoENS_15TrailingObjectsIS3_JNS2_19TemplateArgumentLocEEEES3_JS5_EE22getTrailingObjectsImplEPKS3_NS0_19TrailingObjectsBase13OverloadTokenIS5_EE(ptr noundef %0) #0 comdat align 2 {
  %2 = alloca ptr, align 8
  %3 = alloca ptr, align 8
  store ptr %0, ptr %2, align 8
  %4 = load ptr, ptr %2, align 8
  %5 = call noundef ptr @_ZN4llvm15TrailingObjectsIN5clang27ASTTemplateArgumentListInfoEJNS1_19TemplateArgumentLocEEE22getTrailingObjectsImplEPKS2_NS_25trailing_objects_internal19TrailingObjectsBase13OverloadTokenIS2_EE(ptr noundef %4)
  %6 = load ptr, ptr %2, align 8
  %7 = call noundef i64 @_ZN4llvm15TrailingObjectsIN5clang27ASTTemplateArgumentListInfoEJNS1_19TemplateArgumentLocEEE22callNumTrailingObjectsEPKS2_NS_25trailing_objects_internal19TrailingObjectsBase13OverloadTokenIS2_EE(ptr noundef %6)
  %8 = getelementptr inbounds %"struct.clang::ASTTemplateArgumentListInfo", ptr %5, i64 %7
  store ptr %8, ptr %3, align 8
  %9 = load ptr, ptr %3, align 8
  ret ptr %9
}

; Function Attrs: mustprogress nounwind uwtable
define linkonce_odr hidden noundef ptr @_ZNK4llvm15TrailingObjectsIN5clang27ASTTemplateArgumentListInfoEJNS1_19TemplateArgumentLocEEE18getTrailingObjectsIS3_EEPKT_v(ptr noundef nonnull align 8 dereferenceable(8) %0) #0 comdat align 2 {
  %2 = alloca ptr, align 8
  store ptr %0, ptr %2, align 8
  %3 = load ptr, ptr %2, align 8
  call void @_ZN4llvm15TrailingObjectsIN5clang27ASTTemplateArgumentListInfoEJNS1_19TemplateArgumentLocEEE31verifyTrailingObjectsAssertionsEv()
  %4 = call noundef ptr @_ZN4llvm25trailing_objects_internal19TrailingObjectsImplILi8EN5clang27ASTTemplateArgumentListInfoENS_15TrailingObjectsIS3_JNS2_19TemplateArgumentLocEEEES3_JS5_EE22getTrailingObjectsImplEPKS3_NS0_19TrailingObjectsBase13OverloadTokenIS5_EE(ptr noundef %3)
  ret ptr %4
}

; Function Attrs: mustprogress nounwind uwtable
define linkonce_odr hidden noundef i64 @_ZN4llvm15TrailingObjectsIN5clang27ASTTemplateArgumentListInfoEJNS1_19TemplateArgumentLocEEE22callNumTrailingObjectsEPKS2_NS_25trailing_objects_internal19TrailingObjectsBase13OverloadTokenIS2_EE(ptr noundef %0) #0 comdat align 2 {
  %2 = alloca ptr, align 8
  store ptr %0, ptr %2, align 8
  ret i64 1
}

; Function Attrs: mustprogress nounwind uwtable
define linkonce_odr hidden noundef ptr @_ZN4llvm15TrailingObjectsIN5clang27ASTTemplateArgumentListInfoEJNS1_19TemplateArgumentLocEEE22getTrailingObjectsImplEPS2_NS_25trailing_objects_internal19TrailingObjectsBase13OverloadTokenIS2_EE(ptr noundef %0) #0 comdat align 2 {
  %2 = alloca ptr, align 8
  store ptr %0, ptr %2, align 8
  %3 = load ptr, ptr %2, align 8
  ret ptr %3
}

; Function Attrs: mustprogress nounwind uwtable
define linkonce_odr hidden noundef ptr @_ZNK5clang27ASTTemplateArgumentListInfo15getTemplateArgsEv(ptr noundef nonnull align 8 dereferenceable(16) %0) #0 comdat align 2 {
  %2 = alloca ptr, align 8
  store ptr %0, ptr %2, align 8
  %3 = load ptr, ptr %2, align 8
  %4 = call noundef ptr @_ZNK4llvm15TrailingObjectsIN5clang27ASTTemplateArgumentListInfoEJNS1_19TemplateArgumentLocEEE18getTrailingObjectsIS3_EEPKT_v(ptr noundef nonnull align 8 dereferenceable(8) %3)
  ret ptr %4
}

; Function Attrs: mustprogress nounwind uwtable
define linkonce_odr hidden noundef ptr @_ZN4llvm25trailing_objects_internal19TrailingObjectsImplILi8EN5clang27ASTTemplateArgumentListInfoENS_15TrailingObjectsIS3_JNS2_19TemplateArgumentLocEEEES3_JS5_EE22getTrailingObjectsImplEPS3_NS0_19TrailingObjectsBase13OverloadTokenIS5_EE(ptr noundef %0) #0 comdat align 2 {
  %2 = alloca ptr, align 8
  %3 = alloca ptr, align 8
  store ptr %0, ptr %2, align 8
  %4 = load ptr, ptr %2, align 8
  %5 = call noundef ptr @_ZN4llvm15TrailingObjectsIN5clang27ASTTemplateArgumentListInfoEJNS1_19TemplateArgumentLocEEE22getTrailingObjectsImplEPS2_NS_25trailing_objects_internal19TrailingObjectsBase13OverloadTokenIS2_EE(ptr noundef %4)
  %6 = load ptr, ptr %2, align 8
  %7 = call noundef i64 @_ZN4llvm15TrailingObjectsIN5clang27ASTTemplateArgumentListInfoEJNS1_19TemplateArgumentLocEEE22callNumTrailingObjectsEPKS2_NS_25trailing_objects_internal19TrailingObjectsBase13OverloadTokenIS2_EE(ptr noundef %6)
  %8 = getelementptr inbounds %"struct.clang::ASTTemplateArgumentListInfo", ptr %5, i64 %7
  store ptr %8, ptr %3, align 8
  %9 = load ptr, ptr %3, align 8
  ret ptr %9
}

; Function Attrs: mustprogress nounwind uwtable
define linkonce_odr hidden void @_ZN4llvm15TrailingObjectsIN5clang27ASTTemplateArgumentListInfoEJNS1_19TemplateArgumentLocEEE31verifyTrailingObjectsAssertionsEv() #0 comdat align 2 {
  ret void
}

; Function Attrs: mustprogress nounwind uwtable
define linkonce_odr hidden noundef nonnull align 8 dereferenceable(32) ptr @_ZNK5clang27ASTTemplateArgumentListInfoixEj(ptr noundef nonnull align 8 dereferenceable(16) %0, i32 noundef %1) #0 comdat align 2 {
  %3 = alloca ptr, align 8
  %4 = alloca i32, align 4
  store ptr %0, ptr %3, align 8
  store i32 %1, ptr %4, align 4
  %5 = load ptr, ptr %3, align 8
  %6 = call noundef ptr @_ZNK5clang27ASTTemplateArgumentListInfo15getTemplateArgsEv(ptr noundef nonnull align 8 dereferenceable(16) %5)
  %7 = load i32, ptr %4, align 4
  %8 = zext i32 %7 to i64
  %9 = getelementptr inbounds %"class.clang::TemplateArgumentLoc", ptr %6, i64 %8
  ret ptr %9
}

; Function Attrs: mustprogress nounwind uwtable
define linkonce_odr hidden noundef ptr @_ZN4llvm15TrailingObjectsIN5clang27ASTTemplateArgumentListInfoEJNS1_19TemplateArgumentLocEEE18getTrailingObjectsIS3_EEPT_v(ptr noundef nonnull align 8 dereferenceable(8) %0) #0 comdat align 2 {
  %2 = alloca ptr, align 8
  store ptr %0, ptr %2, align 8
  %3 = load ptr, ptr %2, align 8
  call void @_ZN4llvm15TrailingObjectsIN5clang27ASTTemplateArgumentListInfoEJNS1_19TemplateArgumentLocEEE31verifyTrailingObjectsAssertionsEv()
  %4 = call noundef ptr @_ZN4llvm25trailing_objects_internal19TrailingObjectsImplILi8EN5clang27ASTTemplateArgumentListInfoENS_15TrailingObjectsIS3_JNS2_19TemplateArgumentLocEEEES3_JS5_EE22getTrailingObjectsImplEPS3_NS0_19TrailingObjectsBase13OverloadTokenIS5_EE(ptr noundef %3)
  ret ptr %4
}

; Function Attrs: mustprogress nounwind uwtable
define linkonce_odr hidden noundef i32 @_ZNK5clang27ASTTemplateArgumentListInfo18getNumTemplateArgsEv(ptr noundef nonnull align 8 dereferenceable(16) %0) #0 comdat align 2 {
  %2 = alloca ptr, align 8
  store ptr %0, ptr %2, align 8
  %3 = load ptr, ptr %2, align 8
  %4 = getelementptr inbounds nuw %"struct.clang::ASTTemplateArgumentListInfo", ptr %3, i32 0, i32 2
  %5 = load i32, ptr %4, align 8
  ret i32 %5
}

; Function Attrs: mustprogress nounwind uwtable
define linkonce_odr hidden i32 @_ZNK5clang27ASTTemplateArgumentListInfo12getRAngleLocEv(ptr noundef nonnull align 8 dereferenceable(16) %0) #0 comdat align 2 {
  %2 = alloca %"class.clang::SourceLocation", align 4
  %3 = alloca ptr, align 8
  store ptr %0, ptr %3, align 8
  %4 = load ptr, ptr %3, align 8
  %5 = getelementptr inbounds nuw %"struct.clang::ASTTemplateArgumentListInfo", ptr %4, i32 0, i32 1
  call void @llvm.memcpy.p0.p0.i64(ptr align 4 %2, ptr align 4 %5, i64 4, i1 false)
  %6 = getelementptr inbounds nuw %"class.clang::SourceLocation", ptr %2, i32 0, i32 0
  %7 = load i32, ptr %6, align 4
  ret i32 %7
}

; Function Attrs: mustprogress nounwind uwtable
define linkonce_odr hidden i32 @_ZNK5clang27ASTTemplateArgumentListInfo12getLAngleLocEv(ptr noundef nonnull align 8 dereferenceable(16) %0) #0 comdat align 2 {
  %2 = alloca %"class.clang::SourceLocation", align 4
  %3 = alloca ptr, align 8
  store ptr %0, ptr %3, align 8
  %4 = load ptr, ptr %3, align 8
  %5 = getelementptr inbounds nuw %"struct.clang::ASTTemplateArgumentListInfo", ptr %4, i32 0, i32 0
  call void @llvm.memcpy.p0.p0.i64(ptr align 4 %2, ptr align 8 %5, i64 4, i1 false)
  %6 = getelementptr inbounds nuw %"class.clang::SourceLocation", ptr %2, i32 0, i32 0
  %7 = load i32, ptr %6, align 4
  ret i32 %7
}

; Function Attrs: mustprogress nounwind uwtable
define linkonce_odr hidden void @_ZN5clang14SourceLocationC2Ev(ptr noundef nonnull align 4 dereferenceable(4) %0) unnamed_addr #0 comdat align 2 {
  %2 = alloca ptr, align 8
  store ptr %0, ptr %2, align 8
  %3 = load ptr, ptr %2, align 8
  %4 = getelementptr inbounds nuw %"class.clang::SourceLocation", ptr %3, i32 0, i32 0
  store i32 0, ptr %4, align 4
  ret void
}

; Function Attrs: mustprogress nounwind uwtable
define dso_local void @_ZN5clang27ASTTemplateArgumentListInfoC2EPKS0_(ptr noundef nonnull align 8 dereferenceable(16) %0, ptr noundef %1) unnamed_addr #0 align 2 {
  %3 = alloca ptr, align 8
  %4 = alloca ptr, align 8
  %5 = alloca %"class.clang::SourceLocation", align 4
  %6 = alloca %"class.clang::SourceLocation", align 4
  %7 = alloca ptr, align 8
  %8 = alloca i32, align 4
  store ptr %0, ptr %3, align 8
  store ptr %1, ptr %4, align 8
  %9 = load ptr, ptr %3, align 8
  %10 = getelementptr inbounds nuw %"struct.clang::ASTTemplateArgumentListInfo", ptr %9, i32 0, i32 0
  call void @_ZN5clang14SourceLocationC2Ev(ptr noundef nonnull align 4 dereferenceable(4) %10) #10
  %11 = getelementptr inbounds nuw %"struct.clang::ASTTemplateArgumentListInfo", ptr %9, i32 0, i32 1
  call void @_ZN5clang14SourceLocationC2Ev(ptr noundef nonnull align 4 dereferenceable(4) %11) #10
  %12 = load ptr, ptr %4, align 8
  %13 = call i32 @_ZNK5clang27ASTTemplateArgumentListInfo12getLAngleLocEv(ptr noundef nonnull align 8 dereferenceable(16) %12)
  %14 = getelementptr inbounds nuw %"class.clang::SourceLocation", ptr %5, i32 0, i32 0
  store i32 %13, ptr %14, align 4
  %15 = getelementptr inbounds nuw %"struct.clang::ASTTemplateArgumentListInfo", ptr %9, i32 0, i32 0
  call void @llvm.memcpy.p0.p0.i64(ptr align 8 %15, ptr align 4 %5, i64 4, i1 false)
  %16 = load ptr, ptr %4, align 8
  %17 = call i32 @_ZNK5clang27ASTTemplateArgumentListInfo12getRAngleLocEv(ptr noundef nonnull align 8 dereferenceable(16) %16)
  %18 = getelementptr inbounds nuw %"class.clang::SourceLocation", ptr %6, i32 0, i32 0
  store i32 %17, ptr %18, align 4
  %19 = getelementptr inbounds nuw %"struct.clang::ASTTemplateArgumentListInfo", ptr %9, i32 0, i32 1
  call void @llvm.memcpy.p0.p0.i64(ptr align 4 %19, ptr align 4 %6, i64 4, i1 false)
  %20 = load ptr, ptr %4, align 8
  %21 = call noundef i32 @_ZNK5clang27ASTTemplateArgumentListInfo18getNumTemplateArgsEv(ptr noundef nonnull align 8 dereferenceable(16) %20)
  %22 = getelementptr inbounds nuw %"struct.clang::ASTTemplateArgumentListInfo", ptr %9, i32 0, i32 2
  store i32 %21, ptr %22, align 8
  %23 = call noundef ptr @_ZN4llvm15TrailingObjectsIN5clang27ASTTemplateArgumentListInfoEJNS1_19TemplateArgumentLocEEE18getTrailingObjectsIS3_EEPT_v(ptr noundef nonnull align 8 dereferenceable(8) %9)
  store ptr %23, ptr %7, align 8
  store i32 0, ptr %8, align 4
  br label %24

24:                                               ; preds = %37, %2
  %25 = load i32, ptr %8, align 4
  %26 = getelementptr inbounds nuw %"struct.clang::ASTTemplateArgumentListInfo", ptr %9, i32 0, i32 2
  %27 = load i32, ptr %26, align 8
  %28 = icmp ne i32 %25, %27
  br i1 %28, label %29, label %40

29:                                               ; preds = %24
  %30 = load ptr, ptr %7, align 8
  %31 = load i32, ptr %8, align 4
  %32 = zext i32 %31 to i64
  %33 = getelementptr inbounds %"class.clang::TemplateArgumentLoc", ptr %30, i64 %32
  %34 = load ptr, ptr %4, align 8
  %35 = load i32, ptr %8, align 4
  %36 = call noundef nonnull align 8 dereferenceable(32) ptr @_ZNK5clang27ASTTemplateArgumentListInfoixEj(ptr noundef nonnull align 8 dereferenceable(16) %34, i32 noundef %35)
  call void @llvm.memcpy.p0.p0.i64(ptr align 8 %33, ptr align 8 %36, i64 32, i1 false)
  br label %37

37:                                               ; preds = %29
  %38 = load i32, ptr %8, align 4
  %39 = add i32 %38, 1
  store i32 %39, ptr %8, align 4
  br label %24, !llvm.loop !8

40:                                               ; preds = %24
  ret void
}