; Function Attrs: mustprogress nofree norecurse nosync nounwind memory(argmem: readwrite) uwtable
define dso_local void @_ZN5clang27ASTTemplateArgumentListInfoC2EPKS0_(ptr nocapture noundef nonnull writeonly align 8 dereferenceable(16) %0, ptr nocapture noundef readonly %1) unnamed_addr #9 align 2 {
  store i32 0, ptr %0, align 8
  %3 = getelementptr inbounds nuw i8, ptr %0, i64 4
  store i32 0, ptr %3, align 4
  %.sroa.0.0.copyload.i = load i32, ptr %1, align 8
  store i32 %.sroa.0.0.copyload.i, ptr %0, align 8
  %4 = getelementptr inbounds nuw i8, ptr %1, i64 4
  %.sroa.0.0.copyload.i10 = load i32, ptr %4, align 4
  store i32 %.sroa.0.0.copyload.i10, ptr %3, align 4
  %5 = getelementptr inbounds nuw i8, ptr %1, i64 8
  %6 = load i32, ptr %5, align 8
  %7 = getelementptr inbounds nuw i8, ptr %0, i64 8
  store i32 %6, ptr %7, align 8
  %8 = getelementptr inbounds i8, ptr %0, i64 16
  %.not11 = icmp eq i32 %6, 0
  br i1 %.not11, label %._crit_edge, label %.lr.ph

.lr.ph:                                           ; preds = %2
  %9 = getelementptr inbounds i8, ptr %1, i64 16
  %10 = zext i32 %6 to i64
  br label %11

11:                                               ; preds = %.lr.ph, %11
  %indvars.iv = phi i64 [ 0, %.lr.ph ], [ %indvars.iv.next, %11 ]
  %12 = getelementptr inbounds %"class.clang::TemplateArgumentLoc", ptr %8, i64 %indvars.iv
  %13 = getelementptr inbounds %"class.clang::TemplateArgumentLoc", ptr %9, i64 %indvars.iv
  tail call void @llvm.memcpy.p0.p0.i64(ptr noundef nonnull align 8 dereferenceable(32) %12, ptr noundef nonnull align 8 dereferenceable(32) %13, i64 32, i1 false)
  %indvars.iv.next = add nuw nsw i64 %indvars.iv, 1
  %.not = icmp eq i64 %indvars.iv.next, %10
  br i1 %.not, label %._crit_edge, label %11, !llvm.loop !37

._crit_edge:                                      ; preds = %11, %2
  ret void
}